target datalayout = "e-m:e-p270:32:32-p271:32:32-p272:64:64-i64:64-i128:128-f80:128-n8:16:32:64-S128"
target triple = "x86_64-pc-linux-gnu"

%struct.nghttp2_nv = type { ptr, ptr, i64, i64, i8 }

; Function Attrs: nounwind uwtable
define dso_local i64 @nghttp2_hd_deflate_bound(ptr noundef %0, ptr noundef %1, i64 noundef %2) #0 {
  %4 = alloca ptr, align 8
  %5 = alloca ptr, align 8
  %6 = alloca i64, align 8
  %7 = alloca i64, align 8
  %8 = alloca i64, align 8
  store ptr %0, ptr %4, align 8, !tbaa !36
  store ptr %1, ptr %5, align 8, !tbaa !9
  store i64 %2, ptr %6, align 8, !tbaa !38
  call void @llvm.lifetime.start.p0(i64 8, ptr %7) #6
  store i64 0, ptr %7, align 8, !tbaa !38
  call void @llvm.lifetime.start.p0(i64 8, ptr %8) #6
  %9 = load i64, ptr %7, align 8, !tbaa !38
  %10 = add i64 %9, 12
  store i64 %10, ptr %7, align 8, !tbaa !38
  %11 = load i64, ptr %6, align 8, !tbaa !38
  %12 = mul i64 12, %11
  %13 = load i64, ptr %7, align 8, !tbaa !38
  %14 = add i64 %13, %12
  store i64 %14, ptr %7, align 8, !tbaa !38
  store i64 0, ptr %8, align 8, !tbaa !38
  br label %15

15:                                               ; preds = %33, %3
  %16 = load i64, ptr %8, align 8, !tbaa !38
  %17 = load i64, ptr %6, align 8, !tbaa !38
  %18 = icmp ult i64 %16, %17
  br i1 %18, label %19, label %36

19:                                               ; preds = %15
  %20 = load ptr, ptr %5, align 8, !tbaa !9
  %21 = load i64, ptr %8, align 8, !tbaa !38
  %22 = getelementptr inbounds nuw %struct.nghttp2_nv, ptr %20, i64 %21
  %23 = getelementptr inbounds nuw %struct.nghttp2_nv, ptr %22, i32 0, i32 2
  %24 = load i64, ptr %23, align 8, !tbaa !88
  %25 = load ptr, ptr %5, align 8, !tbaa !9
  %26 = load i64, ptr %8, align 8, !tbaa !38
  %27 = getelementptr inbounds nuw %struct.nghttp2_nv, ptr %25, i64 %26
  %28 = getelementptr inbounds nuw %struct.nghttp2_nv, ptr %27, i32 0, i32 3
  %29 = load i64, ptr %28, align 8, !tbaa !90
  %30 = add i64 %24, %29
  %31 = load i64, ptr %7, align 8, !tbaa !38
  %32 = add i64 %31, %30
  store i64 %32, ptr %7, align 8, !tbaa !38
  br label %33

33:                                               ; preds = %19
  %34 = load i64, ptr %8, align 8, !tbaa !38
  %35 = add i64 %34, 1
  store i64 %35, ptr %8, align 8, !tbaa !38
  br label %15, !llvm.loop !97

36:                                               ; preds = %15
  %37 = load i64, ptr %7, align 8, !tbaa !38
  call void @llvm.lifetime.end.p0(i64 8, ptr %8) #6
  call void @llvm.lifetime.end.p0(i64 8, ptr %7) #6
  ret i64 %37
}